target datalayout = "e-m:e-p270:32:32-p271:32:32-p272:64:64-i64:64-i128:128-f80:128-n8:16:32:64-S128"
target triple = "x86_64-pc-linux-gnu"

%struct.cs_sparse = type { i32, i32, i32, ptr, ptr, ptr, i32 }

; Function Attrs: nounwind uwtable
define ptr @cs_spfree(ptr noundef %0) #0 {
  %2 = alloca ptr, align 8
  %3 = alloca ptr, align 8
  store ptr %0, ptr %3, align 8, !tbaa !7
  %4 = load ptr, ptr %3, align 8, !tbaa !7
  %5 = icmp ne ptr %4, null
  br i1 %5, label %7, label %6

6:                                                ; preds = %1
  store ptr null, ptr %2, align 8
  br label %22

7:                                                ; preds = %1
  %8 = load ptr, ptr %3, align 8, !tbaa !7
  %9 = getelementptr inbounds nuw %struct.cs_sparse, ptr %8, i32 0, i32 3
  %10 = load ptr, ptr %9, align 8, !tbaa !17
  %11 = call ptr @cs_free(ptr noundef %10)
  %12 = load ptr, ptr %3, align 8, !tbaa !7
  %13 = getelementptr inbounds nuw %struct.cs_sparse, ptr %12, i32 0, i32 4
  %14 = load ptr, ptr %13, align 8, !tbaa !18
  %15 = call ptr @cs_free(ptr noundef %14)
  %16 = load ptr, ptr %3, align 8, !tbaa !7
  %17 = getelementptr inbounds nuw %struct.cs_sparse, ptr %16, i32 0, i32 5
  %18 = load ptr, ptr %17, align 8, !tbaa !19
  %19 = call ptr @cs_free(ptr noundef %18)
  %20 = load ptr, ptr %3, align 8, !tbaa !7
  %21 = call ptr @cs_free(ptr noundef %20)
  store ptr %21, ptr %2, align 8
  br label %22

22:                                               ; preds = %7, %6
  %23 = load ptr, ptr %2, align 8
  ret ptr %23
}

; Function Attrs: nounwind uwtable
define ptr @cs_done(ptr noundef %0, ptr noundef %1, ptr noundef %2, i32 noundef %3) #0 {
  %5 = alloca ptr, align 8
  %6 = alloca ptr, align 8
  %7 = alloca ptr, align 8
  %8 = alloca i32, align 4
  store ptr %0, ptr %5, align 8, !tbaa !7
  store ptr %1, ptr %6, align 8, !tbaa !43
  store ptr %2, ptr %7, align 8, !tbaa !43
  store i32 %3, ptr %8, align 4, !tbaa !3
  %9 = load ptr, ptr %6, align 8, !tbaa !43
  %10 = call ptr @cs_free(ptr noundef %9)
  %11 = load ptr, ptr %7, align 8, !tbaa !43
  %12 = call ptr @cs_free(ptr noundef %11)
  %13 = load i32, ptr %8, align 4, !tbaa !3
  %14 = icmp ne i32 %13, 0
  br i1 %14, label %15, label %17

15:                                               ; preds = %4
  %16 = load ptr, ptr %5, align 8, !tbaa !7
  br label %20

17:                                               ; preds = %4
  %18 = load ptr, ptr %5, align 8, !tbaa !7
  %19 = call ptr @cs_spfree(ptr noundef %18)
  br label %20

20:                                               ; preds = %17, %15
  %21 = phi ptr [ %16, %15 ], [ %19, %17 ]
  ret ptr %21
}