; Function Attrs: nounwind uwtable
define ptr @cs_done(ptr noundef %0, ptr noundef %1, ptr noundef %2, i32 noundef %3) local_unnamed_addr #0 {
  %5 = tail call ptr @cs_free(ptr noundef %1) #4
  %6 = tail call ptr @cs_free(ptr noundef %2) #4
  %.not = icmp eq i32 %3, 0
  br i1 %.not, label %7, label %cs_spfree.exit

7:                                                ; preds = %4
  %.not.i = icmp eq ptr %0, null
  br i1 %.not.i, label %cs_spfree.exit, label %8

8:                                                ; preds = %7
  %9 = getelementptr inbounds nuw i8, ptr %0, i64 16
  %10 = load ptr, ptr %9, align 8, !tbaa !14
  %11 = tail call ptr @cs_free(ptr noundef %10) #4
  %12 = getelementptr inbounds nuw i8, ptr %0, i64 24
  %13 = load ptr, ptr %12, align 8, !tbaa !15
  %14 = tail call ptr @cs_free(ptr noundef %13) #4
  %15 = getelementptr inbounds nuw i8, ptr %0, i64 32
  %16 = load ptr, ptr %15, align 8, !tbaa !16
  %17 = tail call ptr @cs_free(ptr noundef %16) #4
  %18 = tail call ptr @cs_free(ptr noundef nonnull %0) #4
  br label %cs_spfree.exit

cs_spfree.exit:                                   ; preds = %8, %7, %4
  %19 = phi ptr [ %0, %4 ], [ %18, %8 ], [ null, %7 ]
  ret ptr %19
}